target datalayout = "e-m:e-p270:32:32-p271:32:32-p272:64:64-i64:64-i128:128-f80:128-n8:16:32:64-S128"
target triple = "x86_64-pc-linux-gnu"

%struct._object = type { %union.anon, ptr }
%union.anon = type { i64 }
%struct.MethodDescriptorObject = type { %struct._object, ptr }
%struct.MethodDescriptor2Object = type { %struct.MethodDescriptorObject, ptr }

; Function Attrs: nounwind uwtable
define internal ptr @MethodDescriptor2_new(ptr noundef %0, ptr noundef %1, ptr noundef %2) #0 {
  %4 = alloca ptr, align 8
  %5 = alloca ptr, align 8
  %6 = alloca ptr, align 8
  %7 = alloca ptr, align 8
  %8 = alloca ptr, align 8
  %9 = alloca i32, align 4
  store ptr %0, ptr %5, align 8, !tbaa !23
  store ptr %1, ptr %6, align 8, !tbaa !3
  store ptr %2, ptr %7, align 8, !tbaa !3
  call void @llvm.lifetime.start.p0(i64 8, ptr %8) #7
  %10 = load ptr, ptr %5, align 8, !tbaa !23
  %11 = call ptr @_PyObject_New(ptr noundef %10)
  store ptr %11, ptr %8, align 8, !tbaa !26
  %12 = load ptr, ptr %8, align 8, !tbaa !26
  %13 = icmp eq ptr %12, null
  br i1 %13, label %14, label %15

14:                                               ; preds = %3
  store ptr null, ptr %4, align 8
  store i32 1, ptr %9, align 4
  br label %22

15:                                               ; preds = %3
  %16 = load ptr, ptr %8, align 8, !tbaa !26
  %17 = getelementptr inbounds nuw %struct.MethodDescriptor2Object, ptr %16, i32 0, i32 0
  %18 = getelementptr inbounds nuw %struct.MethodDescriptorObject, ptr %17, i32 0, i32 1
  store ptr null, ptr %18, align 8, !tbaa !48
  %19 = load ptr, ptr %8, align 8, !tbaa !26
  %20 = getelementptr inbounds nuw %struct.MethodDescriptor2Object, ptr %19, i32 0, i32 1
  store ptr @MethodDescriptor_vectorcall, ptr %20, align 8, !tbaa !50
  %21 = load ptr, ptr %8, align 8, !tbaa !26
  store ptr %21, ptr %4, align 8
  store i32 1, ptr %9, align 4
  br label %22

22:                                               ; preds = %15, %14
  call void @llvm.lifetime.end.p0(i64 8, ptr %8) #7
  %23 = load ptr, ptr %4, align 8
  ret ptr %23
}