; Function Attrs: nounwind uwtable
define internal ptr @MethodDescriptor2_new(ptr noundef %0, ptr readnone captures(none) %1, ptr readnone captures(none) %2) #0 {
  %4 = tail call ptr @_PyObject_New(ptr noundef %0) #5
  %5 = icmp eq ptr %4, null
  br i1 %5, label %9, label %6

6:                                                ; preds = %3
  %7 = getelementptr inbounds nuw i8, ptr %4, i64 16
  store ptr null, ptr %7, align 8, !tbaa !39
  %8 = getelementptr inbounds nuw i8, ptr %4, i64 24
  store ptr @MethodDescriptor_vectorcall, ptr %8, align 8, !tbaa !41
  br label %9

9:                                                ; preds = %3, %6
  ret ptr %4
}